; Function Attrs: nounwind uwtable
define ptr @Prs_CreateDetectRamPort(ptr noundef readonly captures(none) %0, ptr noundef readonly captures(none) %1, i32 noundef %2) local_unnamed_addr #0 {
  %4 = getelementptr i8, ptr %1, i64 4
  %.val = load i32, ptr %4, align 4
  %5 = icmp sgt i32 %.val, 1
  br i1 %5, label %.lr.ph, label %.critedge

.lr.ph:                                           ; preds = %3
  %6 = getelementptr i8, ptr %1, i64 8
  %.val14 = load ptr, ptr %6, align 8
  br label %11

7:                                                ; preds = %11
  %indvars.iv.next = add nuw nsw i64 %indvars.iv, 2
  %8 = trunc i64 %indvars.iv.next to i32
  %9 = or disjoint i32 %8, 1
  %10 = icmp slt i32 %9, %.val
  br i1 %10, label %11, label %.critedge, !llvm.loop !39

11:                                               ; preds = %.lr.ph, %7
  %indvars.iv = phi i64 [ 0, %.lr.ph ], [ %indvars.iv.next, %7 ]
  %12 = getelementptr inbounds nuw i32, ptr %.val14, i64 %indvars.iv
  %13 = load i32, ptr %12, align 4
  %14 = icmp eq i32 %13, %2
  br i1 %14, label %15, label %7

15:                                               ; preds = %11
  %16 = and i64 %indvars.iv, 4294967294
  %17 = or disjoint i64 %16, 1
  %18 = getelementptr inbounds nuw i32, ptr %.val14, i64 %17
  %19 = load i32, ptr %18, align 4
  %20 = getelementptr inbounds nuw i8, ptr %0, i64 8
  %21 = load ptr, ptr %20, align 8
  %22 = ashr i32 %19, 2
  %23 = tail call ptr @Abc_NamStr(ptr noundef %21, i32 noundef %22) #28
  br label %.critedge

.critedge:                                        ; preds = %7, %3, %15
  %.0 = phi ptr [ %23, %15 ], [ null, %3 ], [ null, %7 ]
  ret ptr %.0
}